#include <math.h>
#include <stdio.h>
#include <stdlib.h>
#include <string.h>

int main()
{
	int i,n,k=0;
	scanf("%d",&n);
	for(i=1;i<n+1;i++)
	{      
		if((i%7)!=0&&(i%10)!=7&&(i<70))
		{
			k=k+i*i;
		}
                if((i%7)!=0&&(i%10)!=7&&(i>79))
		{
			k=k+i*i;
		}
	}
	printf("%d",k);
	return 0;
}

